; Function Attrs: nounwind uwtable
define internal fastcc ptr @createNodeId(ptr noundef %0) unnamed_addr #0 {
  %2 = alloca %struct.agxbuf, align 8
  call void @llvm.lifetime.start.p0(i64 32, ptr nonnull %2) #21
  call void @llvm.memset.p0.i64(ptr noundef nonnull align 8 dereferenceable(32) %2, i8 0, i64 32, i1 false)
  %3 = getelementptr inbounds nuw i8, ptr %2, i64 31
  %4 = getelementptr inbounds nuw i8, ptr %2, i64 8
  %5 = getelementptr inbounds nuw i8, ptr %2, i64 16
  br label %6

6:                                                ; preds = %agxbuse.exit, %1
  %7 = load i32, ptr @createNodeId.nodeIdCounter, align 4, !tbaa !20
  %8 = add nsw i32 %7, 1
  store i32 %8, ptr @createNodeId.nodeIdCounter, align 4, !tbaa !20
  call void (ptr, ptr, ...) @agxbprint(ptr noundef %2, ptr noundef nonnull @.str.10, i32 noundef %7)
  %.val.i = load i8, ptr %3, align 1, !tbaa !24
  switch i8 %.val.i, label %agxblen.exit.i.i [
    i8 -1, label %10
    i8 31, label %agxbclear.exit.thread.i
  ]

agxblen.exit.i.i:                                 ; preds = %6
  %9 = zext i8 %.val.i to i64
  br label %agxbsizeof.exit.i.i

10:                                               ; preds = %6
  %11 = load i64, ptr %4, align 8, !tbaa !24
  %12 = load i64, ptr %5, align 8, !tbaa !24
  br label %agxbsizeof.exit.i.i

agxbsizeof.exit.i.i:                              ; preds = %10, %agxblen.exit.i.i
  %.0.i20.i.i = phi i64 [ %11, %10 ], [ %9, %agxblen.exit.i.i ]
  %.0.i14.i.i = phi i64 [ %12, %10 ], [ 31, %agxblen.exit.i.i ]
  %.not.i5.i = icmp ult i64 %.0.i20.i.i, %.0.i14.i.i
  br i1 %.not.i5.i, label %14, label %13

13:                                               ; preds = %agxbsizeof.exit.i.i
  call fastcc void @agxbmore(ptr noundef nonnull %2, i64 noundef 1)
  %.val.i15.pre.i.i = load i8, ptr %3, align 1, !tbaa !24
  br label %14

14:                                               ; preds = %13, %agxbsizeof.exit.i.i
  %.val.i15.i.i = phi i8 [ %.val.i15.pre.i.i, %13 ], [ %.val.i, %agxbsizeof.exit.i.i ]
  %.not.i16.i.i = icmp eq i8 %.val.i15.i.i, -1
  br i1 %.not.i16.i.i, label %20, label %15

15:                                               ; preds = %14
  %16 = zext i8 %.val.i15.i.i to i64
  %17 = getelementptr inbounds nuw [31 x i8], ptr %2, i64 0, i64 %16
  store i8 0, ptr %17, align 1, !tbaa !24
  %18 = load i8, ptr %3, align 1, !tbaa !24
  %19 = add i8 %18, 1
  store i8 %19, ptr %3, align 1, !tbaa !24
  br label %agxbputc.exit.i

20:                                               ; preds = %14
  %21 = load i64, ptr %4, align 8, !tbaa !24
  %22 = load ptr, ptr %2, align 8, !tbaa !24
  %23 = getelementptr inbounds nuw i8, ptr %22, i64 %21
  store i8 0, ptr %23, align 1, !tbaa !24
  %24 = load i64, ptr %4, align 8, !tbaa !24
  %25 = add i64 %24, 1
  store i64 %25, ptr %4, align 8, !tbaa !24
  %.val.i6.pr.i = load i8, ptr %3, align 1, !tbaa !24
  br label %agxbputc.exit.i

agxbputc.exit.i:                                  ; preds = %20, %15
  %.val.i8.pr.i = phi i8 [ %.val.i6.pr.i, %20 ], [ %19, %15 ]
  %.not.i7.i = icmp eq i8 %.val.i8.pr.i, -1
  br i1 %.not.i7.i, label %26, label %agxbclear.exit.thread.i

agxbclear.exit.thread.i:                          ; preds = %agxbputc.exit.i, %6
  store i8 0, ptr %3, align 1, !tbaa !24
  br label %agxbuse.exit

26:                                               ; preds = %agxbputc.exit.i
  store i64 0, ptr %4, align 8, !tbaa !24
  %27 = load ptr, ptr %2, align 8, !tbaa !24
  br label %agxbuse.exit

agxbuse.exit:                                     ; preds = %agxbclear.exit.thread.i, %26
  %28 = phi ptr [ %27, %26 ], [ %2, %agxbclear.exit.thread.i ]
  %29 = load ptr, ptr %0, align 8, !tbaa !25
  %30 = call ptr %29(ptr noundef nonnull %0, ptr noundef %28, i32 noundef 512) #21
  %.not = icmp eq ptr %30, null
  br i1 %.not, label %31, label %6, !llvm.loop !70

31:                                               ; preds = %agxbuse.exit
  %32 = call fastcc ptr @addid(ptr noundef nonnull %0, ptr noundef %28)
  %.val5 = load i8, ptr %3, align 1, !tbaa !24
  %33 = icmp eq i8 %.val5, -1
  br i1 %33, label %34, label %agxbfree.exit

34:                                               ; preds = %31
  %.val = load ptr, ptr %2, align 8
  call void @free(ptr noundef %.val) #21
  br label %agxbfree.exit

agxbfree.exit:                                    ; preds = %31, %34
  call void @llvm.lifetime.end.p0(i64 32, ptr nonnull %2) #21
  ret ptr %32
}